(dp0
S'_AgentService:AgentInfo'
p1
(dp2
S'com.plexapp.agents.fanarttv'
p3
(lp4
(dp5
S'media_types'
p6
(lp7
S'Movie'
p8
asS'accepts_from'
p9
NsS'fallback_agent'
p10
NsS'contributes_to'
p11
(lp12
S'com.plexapp.agents.imdb'
p13
aS'com.plexapp.agents.themoviedb'
p14
asS'has_attribution'
p15
I01
sS'languages'
p16
(lp17
S'xn'
p18
asS'persist_stored_files'
p19
I01
sS'version'
p20
I0
sS'primary_provider'
p21
I00
sS'prefs'
p22
I01
sS'name'
p23
S'Fanart.tv'
p24
sa(dp25
S'media_types'
p26
(lp27
S'TV_Show'
p28
asS'accepts_from'
p29
NsS'fallback_agent'
p30
NsS'contributes_to'
p31
(lp32
S'com.plexapp.agents.thetvdb'
p33
aS'com.plexapp.agents.themoviedb'
p34
asg15
I01
sS'languages'
p35
(lp36
S'xn'
p37
asS'persist_stored_files'
p38
I01
sS'version'
p39
I0
sS'primary_provider'
p40
I00
sS'prefs'
p41
I01
sS'name'
p42
S'Fanart.tv'
p43
sa(dp44
S'media_types'
p45
(lp46
S'Artist'
p47
asS'accepts_from'
p48
NsS'fallback_agent'
p49
NsS'contributes_to'
p50
(lp51
S'com.plexapp.agents.lastfm'
p52
asg15
I01
sS'languages'
p53
(lp54
S'xn'
p55
asS'persist_stored_files'
p56
I01
sS'version'
p57
I0
sS'primary_provider'
p58
I00
sS'prefs'
p59
I01
sS'name'
p60
S'Fanart.tv'
p61
sa(dp62
S'media_types'
p63
(lp64
S'Album'
p65
asS'accepts_from'
p66
NsS'fallback_agent'
p67
NsS'contributes_to'
p68
(lp69
S'com.plexapp.agents.lastfm'
p70
asg15
I01
sS'languages'
p71
(lp72
S'xn'
p73
asS'persist_stored_files'
p74
I01
sS'version'
p75
I0
sS'primary_provider'
p76
I00
sS'prefs'
p77
I01
sS'name'
p78
S'Fanart.tv'
p79
sasS'com.plexapp.agents.none'
p80
(lp81
(dp82
S'media_types'
p83
(lp84
S'Movie'
p85
asS'accepts_from'
p86
NsS'fallback_agent'
p87
NsS'contributes_to'
p88
Nsg15
I00
sS'languages'
p89
(lp90
S'xn'
p91
asS'persist_stored_files'
p92
I01
sS'version'
p93
I0
sS'primary_provider'
p94
I01
sS'prefs'
p95
I00
sS'name'
p96
S'Personal Media'
p97
sa(dp98
S'media_types'
p99
(lp100
S'TV_Show'
p101
asS'accepts_from'
p102
NsS'fallback_agent'
p103
NsS'contributes_to'
p104
Nsg15
I00
sS'languages'
p105
(lp106
S'xn'
p107
asS'persist_stored_files'
p108
I01
sS'version'
p109
I0
sS'primary_provider'
p110
I01
sS'prefs'
p111
I00
sS'name'
p112
S'Personal Media Shows'
p113
sa(dp114
S'media_types'
p115
(lp116
S'Artist'
p117
asS'accepts_from'
p118
NsS'fallback_agent'
p119
NsS'contributes_to'
p120
Nsg15
I00
sS'languages'
p121
(lp122
S'xn'
p123
asS'persist_stored_files'
p124
I01
sS'version'
p125
I0
sS'primary_provider'
p126
I01
sS'prefs'
p127
I00
sS'name'
p128
S'Personal Media Artists'
p129
sa(dp130
S'media_types'
p131
(lp132
S'Album'
p133
asS'accepts_from'
p134
NsS'fallback_agent'
p135
NsS'contributes_to'
p136
Nsg15
I00
sS'languages'
p137
(lp138
S'xn'
p139
asS'persist_stored_files'
p140
I01
sS'version'
p141
I0
sS'primary_provider'
p142
I01
sS'prefs'
p143
I00
sS'name'
p144
S'Personal Media Albums'
p145
sa(dp146
S'media_types'
p147
(lp148
S'Photo'
p149
asS'accepts_from'
p150
NsS'fallback_agent'
p151
NsS'contributes_to'
p152
Nsg15
I00
sS'languages'
p153
(lp154
S'en'
p155
aS'ar'
p156
aS'bg'
p157
aS'ca'
p158
aS'cs'
p159
aS'cy'
p160
aS'da'
p161
aS'de'
p162
aS'el'
p163
aS'es'
p164
aS'et'
p165
aS'fa'
p166
aS'fi'
p167
aS'fr'
p168
aS'he'
p169
aS'hi'
p170
aS'hr'
p171
aS'ht'
p172
aS'hu'
p173
aS'id'
p174
aS'it'
p175
aS'ja'
p176
aS'ko'
p177
aS'lt'
p178
aS'lv'
p179
aS'ms'
p180
aS'mt'
p181
aS'nl'
p182
aS'no'
p183
aS'pl'
p184
aS'pt'
p185
aS'ro'
p186
aS'ru'
p187
aS'sk'
p188
aS'sv'
p189
aS'sl'
p190
aS'sr'
p191
aS'th'
p192
aS'tr'
p193
aS'uk'
p194
aS'ur'
p195
aS'vi'
p196
aS'zh'
p197
aS'xn'
p198
asS'persist_stored_files'
p199
I01
sS'version'
p200
I0
sS'primary_provider'
p201
I01
sS'prefs'
p202
I00
sS'name'
p203
S'Photos'
p204
sasS'tv.plex.agents.music'
p205
(lp206
(dp207
S'media_types'
p208
(lp209
S'Artist'
p210
asS'accepts_from'
p211
NsS'fallback_agent'
p212
NsS'contributes_to'
p213
Nsg15
I01
sS'languages'
p214
(lp215
S'en'
p216
aS'ar'
p217
aS'bg'
p218
aS'zh'
p219
aS'hr'
p220
aS'cs'
p221
aS'da'
p222
aS'nl'
p223
aS'fi'
p224
aS'fr'
p225
aS'de'
p226
aS'el'
p227
aS'hu'
p228
aS'id'
p229
aS'it'
p230
aS'ja'
p231
aS'ko'
p232
aS'nn'
p233
aS'pl'
p234
aS'pt'
p235
aS'ro'
p236
aS'ru'
p237
aS'sr'
p238
aS'sk'
p239
aS'es'
p240
aS'sv'
p241
aS'th'
p242
aS'tr'
p243
aS'vi'
p244
aS'xx'
p245
asS'persist_stored_files'
p246
I01
sS'version'
p247
I0
sS'primary_provider'
p248
I01
sS'prefs'
p249
I01
sS'name'
p250
S'Plex Music'
p251
sa(dp252
S'media_types'
p253
(lp254
S'Album'
p255
asS'accepts_from'
p256
NsS'fallback_agent'
p257
NsS'contributes_to'
p258
Nsg15
I01
sS'languages'
p259
g215
sS'persist_stored_files'
p260
I01
sS'version'
p261
I0
sS'primary_provider'
p262
I01
sS'prefs'
p263
I01
sS'name'
p264
S'Plex Music'
p265
sasS'com.plexapp.agents.opensubtitles'
p266
(lp267
(dp268
S'media_types'
p269
(lp270
S'Movie'
p271
asS'accepts_from'
p272
NsS'fallback_agent'
p273
NsS'contributes_to'
p274
(lp275
S'com.plexapp.agents.imdb'
p276
asg15
I00
sS'languages'
p277
(lp278
S'xn'
p279
asS'persist_stored_files'
p280
I01
sS'version'
p281
I0
sS'primary_provider'
p282
I00
sS'prefs'
p283
I01
sS'name'
p284
S'OpenSubtitles.org'
p285
sa(dp286
S'media_types'
p287
(lp288
S'TV_Show'
p289
asS'accepts_from'
p290
NsS'fallback_agent'
p291
NsS'contributes_to'
p292
(lp293
S'com.plexapp.agents.thetvdb'
p294
asg15
I00
sS'languages'
p295
(lp296
S'xn'
p297
asS'persist_stored_files'
p298
I01
sS'version'
p299
I0
sS'primary_provider'
p300
I00
sS'prefs'
p301
I01
sS'name'
p302
S'OpenSubtitles.org'
p303
sasS'com.plexapp.agents.imdb'
p304
(lp305
(dp306
S'media_types'
p307
(lp308
S'Movie'
p309
asS'primary_provider'
p310
I01
sS'fallback_agent'
p311
NsS'contributes_to'
p312
(lp313
S'com.plexapp.agents.themoviedb'
p314
asS'has_attribution'
p315
I01
sS'languages'
p316
(lp317
S'en'
p318
aS'sv'
p319
aS'fr'
p320
aS'es'
p321
aS'nl'
p322
aS'de'
p323
aS'it'
p324
aS'da'
p325
aS'ar'
p326
aS'ca'
p327
aS'zh'
p328
aS'cs'
p329
aS'et'
p330
aS'fi'
p331
aS'el'
p332
aS'he'
p333
aS'hi'
p334
aS'hu'
p335
aS'id'
p336
aS'ja'
p337
aS'ko'
p338
aS'lv'
p339
aS'no'
p340
aS'fa'
p341
aS'pl'
p342
aS'pt'
p343
aS'ro'
p344
aS'ru'
p345
aS'sk'
p346
aS'th'
p347
aS'tr'
p348
aS'uk'
p349
aS'vi'
p350
asS'persist_stored_files'
p351
I01
sS'version'
p352
I0
sS'accepts_from'
p353
(lp354
S'com.plexapp.agents.localmedia'
p355
asS'prefs'
p356
I01
sS'name'
p357
S'Plex Movie (Legacy)'
p358
sasS'com.plexapp.agents.lyricfind'
p359
(lp360
(dp361
S'media_types'
p362
(lp363
S'Album'
p364
asS'accepts_from'
p365
NsS'fallback_agent'
p366
NsS'contributes_to'
p367
(lp368
S'com.plexapp.agents.lastfm'
p369
aS'tv.plex.agents.music'
p370
aS'org.musicbrainz.agents.music'
p371
asg15
I01
sS'languages'
p372
(lp373
S'xn'
p374
asS'persist_stored_files'
p375
I01
sS'version'
p376
I0
sS'primary_provider'
p377
I00
sS'prefs'
p378
I00
sS'name'
p379
S'LyricFind'
p380
sasS'com.plexapp.agents.thetvdb'
p381
(lp382
(dp383
S'media_types'
p384
(lp385
S'TV_Show'
p386
asS'accepts_from'
p387
NsS'fallback_agent'
p388
NsS'contributes_to'
p389
Nsg15
I01
sS'languages'
p390
(lp391
S'en'
p392
aS'fr'
p393
aS'zh'
p394
aS'sv'
p395
aS'no'
p396
aS'da'
p397
aS'fi'
p398
aS'nl'
p399
aS'de'
p400
aS'it'
p401
aS'es'
p402
aS'pl'
p403
aS'hu'
p404
aS'el'
p405
aS'tr'
p406
aS'ru'
p407
aS'he'
p408
aS'ja'
p409
aS'pt'
p410
aS'cs'
p411
aS'ko'
p412
aS'sl'
p413
aS'hr'
p414
asS'persist_stored_files'
p415
I01
sS'version'
p416
I0
sS'primary_provider'
p417
I01
sS'prefs'
p418
I01
sS'name'
p419
S'TheTVDB'
p420
sasS'tv.plex.agents.movie'
p421
(lp422
(dp423
S'media_types'
p424
(lp425
S'Movie'
p426
asS'accepts_from'
p427
NsS'fallback_agent'
p428
NsS'contributes_to'
p429
Nsg15
I01
sS'languages'
p430
(lp431
sS'persist_stored_files'
p432
I01
sS'version'
p433
I0
sS'primary_provider'
p434
I01
sS'prefs'
p435
I01
sS'name'
p436
S'Plex Movie'
p437
sasS'tv.plex.agents.series'
p438
(lp439
(dp440
S'media_types'
p441
(lp442
S'TV_Show'
p443
asS'accepts_from'
p444
NsS'fallback_agent'
p445
NsS'contributes_to'
p446
Nsg15
I01
sS'languages'
p447
(lp448
sS'persist_stored_files'
p449
I01
sS'version'
p450
I0
sS'primary_provider'
p451
I01
sS'prefs'
p452
I01
sS'name'
p453
S'Plex TV Series'
p454
sasS'com.plexapp.agents.lastfm'
p455
(lp456
(dp457
S'media_types'
p458
(lp459
S'Artist'
p460
asS'accepts_from'
p461
NsS'fallback_agent'
p462
NsS'contributes_to'
p463
Nsg15
I01
sS'languages'
p464
(lp465
S'en'
p466
aS'sv'
p467
aS'fr'
p468
aS'es'
p469
aS'de'
p470
aS'pl'
p471
aS'it'
p472
aS'pt'
p473
aS'ja'
p474
aS'tr'
p475
aS'ru'
p476
aS'zh'
p477
asS'persist_stored_files'
p478
I01
sS'version'
p479
I0
sS'primary_provider'
p480
I01
sS'prefs'
p481
I01
sS'name'
p482
S'Last.fm'
p483
sa(dp484
S'media_types'
p485
(lp486
S'Album'
p487
asS'accepts_from'
p488
NsS'fallback_agent'
p489
NsS'contributes_to'
p490
Nsg15
I01
sS'languages'
p491
(lp492
S'en'
p493
aS'sv'
p494
aS'fr'
p495
aS'es'
p496
aS'de'
p497
aS'pl'
p498
aS'it'
p499
aS'pt'
p500
aS'ja'
p501
aS'tr'
p502
aS'ru'
p503
aS'zh'
p504
asS'persist_stored_files'
p505
I01
sS'version'
p506
I0
sS'primary_provider'
p507
I01
sS'prefs'
p508
I01
sS'name'
p509
S'Last.fm'
p510
sasS'org.musicbrainz.agents.music'
p511
(lp512
(dp513
S'media_types'
p514
(lp515
S'Artist'
p516
asS'accepts_from'
p517
NsS'fallback_agent'
p518
NsS'contributes_to'
p519
Nsg15
I01
sS'languages'
p520
(lp521
S'en'
p522
aS'ar'
p523
aS'bg'
p524
aS'zh'
p525
aS'hr'
p526
aS'cs'
p527
aS'da'
p528
aS'nl'
p529
aS'fi'
p530
aS'fr'
p531
aS'de'
p532
aS'el'
p533
aS'hu'
p534
aS'id'
p535
aS'it'
p536
aS'ja'
p537
aS'ko'
p538
aS'nn'
p539
aS'pl'
p540
aS'pt'
p541
aS'ro'
p542
aS'ru'
p543
aS'sr'
p544
aS'sk'
p545
aS'es'
p546
aS'sv'
p547
aS'th'
p548
aS'tr'
p549
aS'vi'
p550
aS'xx'
p551
asS'persist_stored_files'
p552
I01
sS'version'
p553
I0
sS'primary_provider'
p554
I01
sS'prefs'
p555
I01
sS'name'
p556
S'Musicbrainz'
p557
sa(dp558
S'media_types'
p559
(lp560
S'Album'
p561
asS'accepts_from'
p562
NsS'fallback_agent'
p563
NsS'contributes_to'
p564
Nsg15
I01
sS'languages'
p565
g521
sS'persist_stored_files'
p566
I01
sS'version'
p567
I0
sS'primary_provider'
p568
I01
sS'prefs'
p569
I01
sS'name'
p570
S'Musicbrainz'
p571
sasS'com.plexapp.agents.themoviedb'
p572
(lp573
(dp574
S'media_types'
p575
(lp576
S'Movie'
p577
asS'accepts_from'
p578
(lp579
S'com.plexapp.agents.localmedia'
p580
asS'fallback_agent'
p581
NsS'contributes_to'
p582
Nsg15
I01
sS'languages'
p583
(lp584
S'en'
p585
aS'cs'
p586
aS'da'
p587
aS'de'
p588
aS'el'
p589
aS'es'
p590
aS'fi'
p591
aS'fr'
p592
aS'he'
p593
aS'hr'
p594
aS'hu'
p595
aS'it'
p596
aS'lv'
p597
aS'lt'
p598
aS'nl'
p599
aS'no'
p600
aS'pl'
p601
aS'pt'
p602
aS'ru'
p603
aS'sk'
p604
aS'sv'
p605
aS'th'
p606
aS'tr'
p607
aS'vi'
p608
aS'zh'
p609
aS'ko'
p610
asS'persist_stored_files'
p611
I01
sS'version'
p612
I0
sS'primary_provider'
p613
I01
sS'prefs'
p614
I01
sS'name'
p615
S'The Movie Database'
p616
sa(dp617
S'media_types'
p618
(lp619
S'TV_Show'
p620
asS'accepts_from'
p621
(lp622
S'com.plexapp.agents.localmedia'
p623
aS'com.plexapp.agents.thetvdb'
p624
asS'fallback_agent'
p625
NsS'contributes_to'
p626
(lp627
S'com.plexapp.agents.thetvdb'
p628
asg15
I01
sS'languages'
p629
g584
sS'persist_stored_files'
p630
I01
sS'version'
p631
I0
sS'primary_provider'
p632
I01
sS'prefs'
p633
I01
sS'name'
p634
S'The Movie Database'
p635
sasS'com.plexapp.agents.htbackdrops'
p636
(lp637
(dp638
S'media_types'
p639
(lp640
S'Artist'
p641
asS'accepts_from'
p642
NsS'fallback_agent'
p643
NsS'contributes_to'
p644
(lp645
S'com.plexapp.agents.lastfm'
p646
asg15
I01
sS'languages'
p647
(lp648
S'ab'
p649
aS'aa'
p650
aS'af'
p651
aS'ak'
p652
aS'sq'
p653
aS'am'
p654
aS'ar'
p655
aS'an'
p656
aS'hy'
p657
aS'as'
p658
aS'av'
p659
aS'ae'
p660
aS'ay'
p661
aS'az'
p662
aS'bm'
p663
aS'ba'
p664
aS'eu'
p665
aS'be'
p666
aS'bn'
p667
aS'bh'
p668
aS'bi'
p669
aS'bs'
p670
aS'pb'
p671
aS'br'
p672
aS'bg'
p673
aS'my'
p674
aS'ca'
p675
aS'ch'
p676
aS'ce'
p677
aS'ny'
p678
aS'zh'
p679
aS'cu'
p680
aS'cv'
p681
aS'kw'
p682
aS'co'
p683
aS'cr'
p684
aS'hr'
p685
aS'cs'
p686
aS'da'
p687
aS'dv'
p688
aS'nl'
p689
aS'dz'
p690
aS'en'
p691
aS'eo'
p692
aS'et'
p693
aS'ee'
p694
aS'fo'
p695
aS'fj'
p696
aS'fi'
p697
aS'fr'
p698
aS'fy'
p699
aS'ff'
p700
aS'gd'
p701
aS'gl'
p702
aS'lg'
p703
aS'ka'
p704
aS'de'
p705
aS'el'
p706
aS'gn'
p707
aS'gu'
p708
aS'ht'
p709
aS'ha'
p710
aS'he'
p711
aS'hz'
p712
aS'hi'
p713
aS'ho'
p714
aS'hu'
p715
aS'is'
p716
aS'io'
p717
aS'ig'
p718
aS'id'
p719
aS'ia'
p720
aS'ie'
p721
aS'iu'
p722
aS'ik'
p723
aS'ga'
p724
aS'it'
p725
aS'ja'
p726
aS'jv'
p727
aS'kl'
p728
aS'kn'
p729
aS'kr'
p730
aS'ks'
p731
aS'kk'
p732
aS'km'
p733
aS'ki'
p734
aS'rw'
p735
aS'ky'
p736
aS'kv'
p737
aS'kg'
p738
aS'ko'
p739
aS'kj'
p740
aS'ku'
p741
aS'lo'
p742
aS'la'
p743
aS'lv'
p744
aS'li'
p745
aS'ln'
p746
aS'lt'
p747
aS'lu'
p748
aS'lb'
p749
aS'mk'
p750
aS'mg'
p751
aS'ms'
p752
aS'ml'
p753
aS'mt'
p754
aS'gv'
p755
aS'mi'
p756
aS'mr'
p757
aS'mh'
p758
aS'mo'
p759
aS'mn'
p760
aS'na'
p761
aS'nv'
p762
aS'ng'
p763
aS'ne'
p764
aS'xn'
p765
aS'nd'
p766
aS'no'
p767
aS'nb'
p768
aS'nn'
p769
aS'oc'
p770
aS'oj'
p771
aS'or'
p772
aS'om'
p773
aS'os'
p774
aS'pi'
p775
aS'pa'
p776
aS'fa'
p777
aS'pl'
p778
aS'pt'
p779
aS'ps'
p780
aS'qu'
p781
aS'rm'
p782
aS'ro'
p783
aS'rn'
p784
aS'ru'
p785
aS'se'
p786
aS'sm'
p787
aS'sg'
p788
aS'sa'
p789
aS'sc'
p790
aS'sr'
p791
aS'sn'
p792
aS'ii'
p793
aS'sd'
p794
aS'si'
p795
aS'sk'
p796
aS'sl'
p797
aS'so'
p798
aS'st'
p799
aS'nr'
p800
aS'es'
p801
aS'su'
p802
aS'sw'
p803
aS'ss'
p804
aS'sv'
p805
aS'tl'
p806
aS'ty'
p807
aS'tg'
p808
aS'ta'
p809
aS'tt'
p810
aS'te'
p811
aS'th'
p812
aS'bo'
p813
aS'ti'
p814
aS'to'
p815
aS'ts'
p816
aS'tn'
p817
aS'tr'
p818
aS'tk'
p819
aS'tw'
p820
aS'ug'
p821
aS'uk'
p822
aS'ur'
p823
aS'uz'
p824
aS've'
p825
aS'vi'
p826
aS'vo'
p827
aS'wa'
p828
aS'cy'
p829
aS'wo'
p830
aS'xh'
p831
aS'yi'
p832
aS'yo'
p833
aS'za'
p834
aS'zu'
p835
asS'persist_stored_files'
p836
I01
sS'version'
p837
I0
sS'primary_provider'
p838
I00
sS'prefs'
p839
I00
sS'name'
p840
S'Home Theater Backdrops'
p841
sasS'com.plexapp.agents.movieposterdb'
p842
(lp843
(dp844
S'media_types'
p845
(lp846
S'Movie'
p847
asS'accepts_from'
p848
NsS'fallback_agent'
p849
NsS'contributes_to'
p850
(lp851
S'com.plexapp.agents.imdb'
p852
asg15
I01
sS'languages'
p853
(lp854
S'xn'
p855
asS'persist_stored_files'
p856
I01
sS'version'
p857
I0
sS'primary_provider'
p858
I00
sS'prefs'
p859
I00
sS'name'
p860
S'CineMaterial'
p861
sasS'com.plexapp.agents.localmedia'
p862
(lp863
(dp864
S'media_types'
p865
(lp866
S'Movie'
p867
asS'primary_provider'
p868
I00
sS'fallback_agent'
p869
NsS'contributes_to'
p870
(lp871
S'com.plexapp.agents.imdb'
p872
aS'com.plexapp.agents.none'
p873
asS'has_attribution'
p874
I00
sS'languages'
p875
(lp876
S'xn'
p877
asS'persist_stored_files'
p878
I00
sS'version'
p879
I0
sS'accepts_from'
p880
NsS'prefs'
p881
I01
sS'name'
p882
S'Local Media Assets (Movies)'
p883
sa(dp884
S'media_types'
p885
(lp886
S'TV_Show'
p887
asS'primary_provider'
p888
I00
sS'fallback_agent'
p889
NsS'contributes_to'
p890
(lp891
S'com.plexapp.agents.thetvdb'
p892
aS'com.plexapp.agents.none'
p893
asg874
I00
sS'languages'
p894
(lp895
S'xn'
p896
asS'persist_stored_files'
p897
I00
sS'version'
p898
I0
sS'accepts_from'
p899
NsS'prefs'
p900
I01
sS'name'
p901
S'Local Media Assets (TV)'
p902
sa(dp903
S'media_types'
p904
(lp905
S'Artist'
p906
asS'primary_provider'
p907
I00
sS'fallback_agent'
p908
NsS'contributes_to'
p909
(lp910
S'com.plexapp.agents.discogs'
p911
aS'com.plexapp.agents.lastfm'
p912
aS'com.plexapp.agents.plexmusic'
p913
aS'com.plexapp.agents.none'
p914
aS'tv.plex.agents.music'
p915
aS'org.musicbrainz.agents.music'
p916
asg874
I00
sS'languages'
p917
(lp918
S'xn'
p919
asS'persist_stored_files'
p920
I00
sS'version'
p921
I0
sS'accepts_from'
p922
NsS'prefs'
p923
I01
sS'name'
p924
S'Local Media Assets (Artists)'
p925
sa(dp926
S'media_types'
p927
(lp928
S'Artist'
p929
asS'primary_provider'
p930
I00
sS'fallback_agent'
p931
NsS'contributes_to'
p932
(lp933
S'com.plexapp.agents.plexmusic'
p934
asg874
I00
sS'languages'
p935
g918
sS'persist_stored_files'
p936
I00
sS'version'
p937
I2
sS'accepts_from'
p938
NsS'prefs'
p939
I01
sS'name'
p940
S'Local Media Assets (Artists)'
p941
sa(dp942
S'media_types'
p943
(lp944
S'Album'
p945
asS'primary_provider'
p946
I00
sS'fallback_agent'
p947
NsS'contributes_to'
p948
(lp949
S'com.plexapp.agents.discogs'
p950
aS'com.plexapp.agents.lastfm'
p951
aS'com.plexapp.agents.plexmusic'
p952
aS'com.plexapp.agents.none'
p953
aS'tv.plex.agents.music'
p954
aS'org.musicbrainz.agents.music'
p955
asg874
I00
sS'languages'
p956
(lp957
S'xn'
p958
asS'persist_stored_files'
p959
I00
sS'version'
p960
I0
sS'accepts_from'
p961
NsS'prefs'
p962
I01
sS'name'
p963
S'Local Media Assets (Albums)'
p964
sasS'com.plexapp.agents.plexthememusic'
p965
(lp966
(dp967
S'media_types'
p968
(lp969
S'TV_Show'
p970
asS'accepts_from'
p971
NsS'fallback_agent'
p972
NsS'contributes_to'
p973
(lp974
S'com.plexapp.agents.thetvdb'
p975
aS'com.plexapp.agents.thetvdbdvdorder'
p976
aS'com.plexapp.agents.themoviedb'
p977
asg15
I00
sS'languages'
p978
(lp979
S'xn'
p980
asS'persist_stored_files'
p981
I01
sS'version'
p982
I0
sS'primary_provider'
p983
I00
sS'prefs'
p984
I00
sS'name'
p985
S'Plex Theme Music'
p986
sass.